target datalayout = "e-m:e-p270:32:32-p271:32:32-p272:64:64-i64:64-i128:128-f80:128-n8:16:32:64-S128"
target triple = "x86_64-pc-linux-gnu"

%class.QString = type { %struct.QArrayDataPointer }
%struct.QArrayDataPointer = type { ptr, ptr, i64 }
%class.FunnelTextDialog = type { %class.GeometryStateDialog, ptr, %struct._funnel_text_window_t, ptr, ptr }
%class.GeometryStateDialog = type { %class.QDialog, %class.QString }
%class.QDialog = type { %class.QWidget }
%class.QWidget = type { %class.QObject, %class.QPaintDevice.base, ptr }
%class.QObject = type { ptr, %class.QScopedPointer }
%class.QScopedPointer = type { ptr }
%class.QPaintDevice.base = type <{ ptr, i16 }>
%struct._funnel_text_window_t = type { ptr }

@_ZN16FunnelTextDialogC1EP7QWidgetRK7QString = unnamed_addr alias void (ptr, ptr, ptr), ptr @_ZN16FunnelTextDialogC2EP7QWidgetRK7QString

; Function Attrs: mustprogress uwtable
define noundef ptr @_ZN16FunnelTextDialog13textWindowNewEP7QWidget7QString(ptr noundef %0, ptr noundef %1) #3 align 2 personality ptr @__gxx_personality_v0 {
  %3 = alloca ptr, align 8
  %4 = alloca ptr, align 8
  %5 = alloca ptr, align 8
  %6 = alloca ptr, align 8
  %7 = alloca i32, align 4
  store ptr %0, ptr %3, align 8
  store ptr %1, ptr %4, align 8
  %8 = call noalias noundef nonnull ptr @_Znwm(i64 noundef 96) #18
  %9 = load ptr, ptr %3, align 8
  invoke void @_ZN16FunnelTextDialogC1EP7QWidgetRK7QString(ptr noundef nonnull align 8 dereferenceable(96) %8, ptr noundef %9, ptr noundef nonnull align 8 dereferenceable(24) %1)
          to label %10 unwind label %14

10:                                               ; preds = %2
  store ptr %8, ptr %5, align 8
  %11 = load ptr, ptr %5, align 8
  call void @_ZN7QWidget4showEv(ptr noundef nonnull align 8 dereferenceable(40) %11)
  %12 = load ptr, ptr %5, align 8
  %13 = getelementptr inbounds %class.FunnelTextDialog, ptr %12, i32 0, i32 2
  ret ptr %13

14:                                               ; preds = %2
  %15 = landingpad { ptr, i32 }
          cleanup
  %16 = extractvalue { ptr, i32 } %15, 0
  store ptr %16, ptr %6, align 8
  %17 = extractvalue { ptr, i32 } %15, 1
  store i32 %17, ptr %7, align 4
  call void @_ZdlPv(ptr noundef %8) #17
  br label %18

18:                                               ; preds = %14
  %19 = load ptr, ptr %6, align 8
  %20 = load i32, ptr %7, align 4
  %21 = insertvalue { ptr, i32 } poison, ptr %19, 0
  %22 = insertvalue { ptr, i32 } %21, i32 %20, 1
  resume { ptr, i32 } %22
}