; Function Attrs: mustprogress uwtable
define noundef ptr @_ZN16FunnelTextDialog13textWindowNewEP7QWidget7QString(ptr noundef %0, ptr noundef %1) local_unnamed_addr #2 align 2 personality ptr @__gxx_personality_v0 {
  %3 = tail call noalias noundef nonnull dereferenceable(96) ptr @_Znwm(i64 noundef 96) #21
  invoke void @_ZN16FunnelTextDialogC1EP7QWidgetRK7QString(ptr noundef nonnull align 8 dereferenceable(96) %3, ptr noundef %0, ptr noundef nonnull align 8 dereferenceable(24) %1)
          to label %4 unwind label %6

4:                                                ; preds = %2
  tail call void @_ZN7QWidget4showEv(ptr noundef nonnull align 8 dereferenceable(40) %3)
  %5 = getelementptr inbounds i8, ptr %3, i64 72
  ret ptr %5

6:                                                ; preds = %2
  %7 = landingpad { ptr, i32 }
          cleanup
  tail call void @_ZdlPv(ptr noundef nonnull %3) #20
  resume { ptr, i32 } %7
}